; Function Attrs: nounwind uwtable
define noalias noundef ptr @Abc_MfsComputeRoots(ptr noundef %0, i32 noundef %1, i32 noundef %2) local_unnamed_addr #0 {
  %4 = tail call noalias dereferenceable_or_null(16) ptr @malloc(i64 noundef 16) #5
  %5 = getelementptr inbounds nuw i8, ptr %4, i64 4
  store i32 0, ptr %5, align 4, !tbaa !40
  store i32 10, ptr %4, align 8, !tbaa !41
  %6 = tail call noalias dereferenceable_or_null(80) ptr @malloc(i64 noundef 80) #5
  %7 = getelementptr inbounds nuw i8, ptr %4, i64 8
  store ptr %6, ptr %7, align 8, !tbaa !35
  %8 = load ptr, ptr %0, align 8, !tbaa !3
  %9 = getelementptr inbounds nuw i8, ptr %8, i64 232
  %10 = load ptr, ptr %9, align 8, !tbaa !43
  %.not.i = icmp eq ptr %10, null
  br i1 %.not.i, label %11, label %Abc_NtkIncrementTravId.exit

11:                                               ; preds = %3
  %12 = getelementptr inbounds nuw i8, ptr %8, i64 224
  %13 = getelementptr i8, ptr %8, i64 32
  %.val.i = load ptr, ptr %13, align 8, !tbaa !34
  %14 = getelementptr i8, ptr %.val.i, i64 4
  %.val.val.i = load i32, ptr %14, align 4, !tbaa !40
  %15 = add nsw i32 %.val.val.i, 500
  %16 = load i32, ptr %12, align 8, !tbaa !15
  %.not.i.i.i = icmp slt i32 %16, %15
  br i1 %.not.i.i.i, label %17, label %Vec_IntGrow.exit.i.i

17:                                               ; preds = %11
  %18 = sext i32 %15 to i64
  %19 = shl nsw i64 %18, 2
  %20 = tail call noalias ptr @malloc(i64 noundef %19) #5
  store ptr %20, ptr %9, align 8, !tbaa !16
  store i32 %15, ptr %12, align 8, !tbaa !15
  br label %Vec_IntGrow.exit.i.i

Vec_IntGrow.exit.i.i:                             ; preds = %17, %11
  %21 = phi ptr [ %20, %17 ], [ null, %11 ]
  %22 = icmp sgt i32 %.val.val.i, -500
  br i1 %22, label %.lr.ph.i.i, label %Vec_IntFill.exit.i

.lr.ph.i.i:                                       ; preds = %Vec_IntGrow.exit.i.i
  %23 = zext nneg i32 %15 to i64
  %24 = shl nuw nsw i64 %23, 2
  tail call void @llvm.memset.p0.i64(ptr align 4 %21, i8 0, i64 %24, i1 false), !tbaa !17
  br label %Vec_IntFill.exit.i

Vec_IntFill.exit.i:                               ; preds = %.lr.ph.i.i, %Vec_IntGrow.exit.i.i
  %25 = getelementptr inbounds nuw i8, ptr %8, i64 228
  store i32 %15, ptr %25, align 4, !tbaa !14
  br label %Abc_NtkIncrementTravId.exit

Abc_NtkIncrementTravId.exit:                      ; preds = %3, %Vec_IntFill.exit.i
  %26 = getelementptr inbounds nuw i8, ptr %8, i64 216
  %27 = load i32, ptr %26, align 8, !tbaa !18
  %28 = add nsw i32 %27, 1
  store i32 %28, ptr %26, align 8, !tbaa !18
  %29 = getelementptr inbounds nuw i8, ptr %0, i64 20
  %30 = load i32, ptr %29, align 4
  %31 = lshr i32 %30, 12
  %32 = add nsw i32 %31, %1
  tail call void @Abc_MfsComputeRoots_rec(ptr noundef nonnull %0, i32 noundef %32, i32 noundef %2, ptr noundef nonnull %4)
  ret ptr %4
}